target datalayout = "e-m:e-p270:32:32-p271:32:32-p272:64:64-i64:64-i128:128-f80:128-n8:16:32:64-S128"
target triple = "x86_64-pc-linux-gnu"

%struct.DdManager = type { %struct.DdNode, ptr, ptr, ptr, ptr, ptr, ptr, ptr, i32, i32, double, double, double, i32, i32, i32, i32, i32, i32, ptr, ptr, %struct.DdSubtable, i32, i32, i32, i32, i32, i32, i32, double, i32, i32, i32, ptr, i64, double, i32, ptr, ptr, ptr, ptr, ptr, ptr, ptr, i32, ptr, ptr, ptr, ptr, ptr, ptr, i32, i32, i32, double, i32, i32, i32, i32, double, double, i32, i32, i32, i32, i32, i32, i32, i32, i32, ptr, ptr, i32, i32, i32, i32, i32, i32, ptr, ptr, ptr, ptr, ptr, ptr, ptr, ptr, i32, i64, i64, i64, i32, i64, i64, double, double, double, double, double, double, i32, ptr, ptr, i64 }
%struct.DdNode = type { i32, i32, ptr, %union.anon, i64 }
%union.anon = type { %struct.DdChildren }
%struct.DdChildren = type { ptr, ptr }
%struct.DdSubtable = type { ptr, i32, i32, i32, i32, i32, i32, i32, i32, i32, i32, i32 }
%struct.Move = type { i32, i32, i32, i32, ptr }

; Function Attrs: nounwind uwtable
define internal ptr @cuddZddLinearUp(ptr noundef %0, i32 noundef %1, i32 noundef %2, ptr noundef %3) #0 {
  %5 = alloca ptr, align 8
  %6 = alloca ptr, align 8
  %7 = alloca i32, align 4
  %8 = alloca i32, align 4
  %9 = alloca ptr, align 8
  %10 = alloca ptr, align 8
  %11 = alloca ptr, align 8
  %12 = alloca i32, align 4
  %13 = alloca i32, align 4
  %14 = alloca i32, align 4
  %15 = alloca i32, align 4
  %16 = alloca i32, align 4
  store ptr %0, ptr %6, align 8, !tbaa !3
  store i32 %1, ptr %7, align 4, !tbaa !8
  store i32 %2, ptr %8, align 4, !tbaa !8
  store ptr %3, ptr %9, align 8, !tbaa !40
  call void @llvm.lifetime.start.p0(i64 8, ptr %10) #5
  call void @llvm.lifetime.start.p0(i64 8, ptr %11) #5
  call void @llvm.lifetime.start.p0(i64 4, ptr %12) #5
  call void @llvm.lifetime.start.p0(i64 4, ptr %13) #5
  call void @llvm.lifetime.start.p0(i64 4, ptr %14) #5
  call void @llvm.lifetime.start.p0(i64 4, ptr %15) #5
  %17 = load ptr, ptr %9, align 8, !tbaa !40
  store ptr %17, ptr %10, align 8, !tbaa !40
  %18 = load ptr, ptr %6, align 8, !tbaa !3
  %19 = getelementptr inbounds nuw %struct.DdManager, ptr %18, i32 0, i32 24
  %20 = load i32, ptr %19, align 8, !tbaa !39
  store i32 %20, ptr %15, align 4, !tbaa !8
  %21 = load ptr, ptr %6, align 8, !tbaa !3
  %22 = load i32, ptr %7, align 4, !tbaa !8
  %23 = call i32 @cuddZddNextLow(ptr noundef %21, i32 noundef %22)
  store i32 %23, ptr %12, align 4, !tbaa !8
  br label %24

24:                                               ; preds = %99, %4
  %25 = load i32, ptr %12, align 4, !tbaa !8
  %26 = load i32, ptr %8, align 4, !tbaa !8
  %27 = icmp sge i32 %25, %26
  br i1 %27, label %28, label %104

28:                                               ; preds = %24
  %29 = load ptr, ptr %6, align 8, !tbaa !3
  %30 = load i32, ptr %12, align 4, !tbaa !8
  %31 = load i32, ptr %7, align 4, !tbaa !8
  %32 = call i32 @cuddZddSwapInPlace(ptr noundef %29, i32 noundef %30, i32 noundef %31)
  store i32 %32, ptr %13, align 4, !tbaa !8
  %33 = load i32, ptr %13, align 4, !tbaa !8
  %34 = icmp eq i32 %33, 0
  br i1 %34, label %35, label %36

35:                                               ; preds = %28
  br label %106

36:                                               ; preds = %28
  %37 = load ptr, ptr %6, align 8, !tbaa !3
  %38 = load i32, ptr %12, align 4, !tbaa !8
  %39 = load i32, ptr %7, align 4, !tbaa !8
  %40 = call i32 @cuddZddLinearInPlace(ptr noundef %37, i32 noundef %38, i32 noundef %39)
  store i32 %40, ptr %14, align 4, !tbaa !8
  %41 = load i32, ptr %14, align 4, !tbaa !8
  %42 = icmp eq i32 %41, 0
  br i1 %42, label %43, label %44

43:                                               ; preds = %36
  br label %106

44:                                               ; preds = %36
  %45 = load ptr, ptr %6, align 8, !tbaa !3
  %46 = call ptr @cuddDynamicAllocNode(ptr noundef %45)
  store ptr %46, ptr %11, align 8, !tbaa !40
  %47 = load ptr, ptr %11, align 8, !tbaa !40
  %48 = icmp eq ptr %47, null
  br i1 %48, label %49, label %50

49:                                               ; preds = %44
  br label %106

50:                                               ; preds = %44
  %51 = load i32, ptr %12, align 4, !tbaa !8
  %52 = load ptr, ptr %11, align 8, !tbaa !40
  %53 = getelementptr inbounds nuw %struct.Move, ptr %52, i32 0, i32 0
  store i32 %51, ptr %53, align 8, !tbaa !51
  %54 = load i32, ptr %7, align 4, !tbaa !8
  %55 = load ptr, ptr %11, align 8, !tbaa !40
  %56 = getelementptr inbounds nuw %struct.Move, ptr %55, i32 0, i32 1
  store i32 %54, ptr %56, align 4, !tbaa !52
  %57 = load ptr, ptr %10, align 8, !tbaa !40
  %58 = load ptr, ptr %11, align 8, !tbaa !40
  %59 = getelementptr inbounds nuw %struct.Move, ptr %58, i32 0, i32 4
  store ptr %57, ptr %59, align 8, !tbaa !42
  %60 = load ptr, ptr %11, align 8, !tbaa !40
  store ptr %60, ptr %10, align 8, !tbaa !40
  %61 = load ptr, ptr %11, align 8, !tbaa !40
  %62 = getelementptr inbounds nuw %struct.Move, ptr %61, i32 0, i32 2
  store i32 0, ptr %62, align 8, !tbaa !53
  %63 = load i32, ptr %14, align 4, !tbaa !8
  %64 = load i32, ptr %13, align 4, !tbaa !8
  %65 = icmp sgt i32 %63, %64
  br i1 %65, label %66, label %75

66:                                               ; preds = %50
  %67 = load ptr, ptr %6, align 8, !tbaa !3
  %68 = load i32, ptr %12, align 4, !tbaa !8
  %69 = load i32, ptr %7, align 4, !tbaa !8
  %70 = call i32 @cuddZddLinearInPlace(ptr noundef %67, i32 noundef %68, i32 noundef %69)
  store i32 %70, ptr %14, align 4, !tbaa !8
  %71 = load i32, ptr %14, align 4, !tbaa !8
  %72 = icmp eq i32 %71, 0
  br i1 %72, label %73, label %74

73:                                               ; preds = %66
  br label %106

74:                                               ; preds = %66
  br label %79

75:                                               ; preds = %50
  %76 = load i32, ptr %14, align 4, !tbaa !8
  store i32 %76, ptr %13, align 4, !tbaa !8
  %77 = load ptr, ptr %11, align 8, !tbaa !40
  %78 = getelementptr inbounds nuw %struct.Move, ptr %77, i32 0, i32 2
  store i32 1, ptr %78, align 8, !tbaa !53
  br label %79

79:                                               ; preds = %75, %74
  %80 = load i32, ptr %13, align 4, !tbaa !8
  %81 = load ptr, ptr %11, align 8, !tbaa !40
  %82 = getelementptr inbounds nuw %struct.Move, ptr %81, i32 0, i32 3
  store i32 %80, ptr %82, align 4, !tbaa !55
  %83 = load i32, ptr %13, align 4, !tbaa !8
  %84 = sitofp i32 %83 to double
  %85 = load i32, ptr %15, align 4, !tbaa !8
  %86 = sitofp i32 %85 to double
  %87 = load ptr, ptr %6, align 8, !tbaa !3
  %88 = getelementptr inbounds nuw %struct.DdManager, ptr %87, i32 0, i32 59
  %89 = load double, ptr %88, align 8, !tbaa !56
  %90 = fmul double %86, %89
  %91 = fcmp ogt double %84, %90
  br i1 %91, label %92, label %93

92:                                               ; preds = %79
  br label %104

93:                                               ; preds = %79
  %94 = load i32, ptr %13, align 4, !tbaa !8
  %95 = load i32, ptr %15, align 4, !tbaa !8
  %96 = icmp slt i32 %94, %95
  br i1 %96, label %97, label %99

97:                                               ; preds = %93
  %98 = load i32, ptr %13, align 4, !tbaa !8
  store i32 %98, ptr %15, align 4, !tbaa !8
  br label %99

99:                                               ; preds = %97, %93
  %100 = load i32, ptr %12, align 4, !tbaa !8
  store i32 %100, ptr %7, align 4, !tbaa !8
  %101 = load ptr, ptr %6, align 8, !tbaa !3
  %102 = load i32, ptr %7, align 4, !tbaa !8
  %103 = call i32 @cuddZddNextLow(ptr noundef %101, i32 noundef %102)
  store i32 %103, ptr %12, align 4, !tbaa !8
  br label %24, !llvm.loop !61

104:                                              ; preds = %92, %24
  %105 = load ptr, ptr %10, align 8, !tbaa !40
  store ptr %105, ptr %5, align 8
  store i32 1, ptr %16, align 4
  br label %126

106:                                              ; preds = %73, %49, %43, %35
  br label %107

107:                                              ; preds = %110, %106
  %108 = load ptr, ptr %10, align 8, !tbaa !40
  %109 = icmp ne ptr %108, null
  br i1 %109, label %110, label %125

110:                                              ; preds = %107
  %111 = load ptr, ptr %10, align 8, !tbaa !40
  %112 = getelementptr inbounds nuw %struct.Move, ptr %111, i32 0, i32 4
  %113 = load ptr, ptr %112, align 8, !tbaa !42
  store ptr %113, ptr %11, align 8, !tbaa !40
  %114 = load ptr, ptr %10, align 8, !tbaa !40
  %115 = getelementptr inbounds nuw %struct.DdNode, ptr %114, i32 0, i32 1
  store i32 0, ptr %115, align 4, !tbaa !44
  %116 = load ptr, ptr %6, align 8, !tbaa !3
  %117 = getelementptr inbounds nuw %struct.DdManager, ptr %116, i32 0, i32 48
  %118 = load ptr, ptr %117, align 8, !tbaa !45
  %119 = load ptr, ptr %10, align 8, !tbaa !40
  %120 = getelementptr inbounds nuw %struct.DdNode, ptr %119, i32 0, i32 2
  store ptr %118, ptr %120, align 8, !tbaa !46
  %121 = load ptr, ptr %10, align 8, !tbaa !40
  %122 = load ptr, ptr %6, align 8, !tbaa !3
  %123 = getelementptr inbounds nuw %struct.DdManager, ptr %122, i32 0, i32 48
  store ptr %121, ptr %123, align 8, !tbaa !45
  %124 = load ptr, ptr %11, align 8, !tbaa !40
  store ptr %124, ptr %10, align 8, !tbaa !40
  br label %107, !llvm.loop !62

125:                                              ; preds = %107
  store ptr inttoptr (i64 -1 to ptr), ptr %5, align 8
  store i32 1, ptr %16, align 4
  br label %126

126:                                              ; preds = %125, %104
  call void @llvm.lifetime.end.p0(i64 4, ptr %15) #5
  call void @llvm.lifetime.end.p0(i64 4, ptr %14) #5
  call void @llvm.lifetime.end.p0(i64 4, ptr %13) #5
  call void @llvm.lifetime.end.p0(i64 4, ptr %12) #5
  call void @llvm.lifetime.end.p0(i64 8, ptr %11) #5
  call void @llvm.lifetime.end.p0(i64 8, ptr %10) #5
  %127 = load ptr, ptr %5, align 8
  ret ptr %127
}