; Function Attrs: nounwind uwtable
define internal fastcc ptr @cuddZddLinearUp(ptr noundef %0, i32 noundef %1, i32 noundef %2, ptr noundef %3) unnamed_addr #0 {
  %5 = getelementptr inbounds nuw i8, ptr %0, i64 232
  %6 = load i32, ptr %5, align 8, !tbaa !36
  %7 = tail call i32 @cuddZddNextLow(ptr noundef %0, i32 noundef %1) #9
  %.not63 = icmp slt i32 %7, %2
  br i1 %.not63, label %.loopexit, label %.lr.ph

.lr.ph:                                           ; preds = %4
  %8 = getelementptr inbounds nuw i8, ptr %0, i64 464
  br label %9

9:                                                ; preds = %.lr.ph, %34
  %.067 = phi i32 [ %6, %.lr.ph ], [ %spec.select, %34 ]
  %.05366 = phi i32 [ %7, %.lr.ph ], [ %35, %34 ]
  %.05465 = phi ptr [ %3, %.lr.ph ], [ %16, %34 ]
  %.05764 = phi i32 [ %1, %.lr.ph ], [ %.05366, %34 ]
  %10 = tail call i32 @cuddZddSwapInPlace(ptr noundef nonnull %0, i32 noundef %.05366, i32 noundef %.05764) #9
  %11 = icmp eq i32 %10, 0
  br i1 %11, label %36, label %12

12:                                               ; preds = %9
  %13 = tail call fastcc i32 @cuddZddLinearInPlace(ptr noundef nonnull %0, i32 noundef %.05366, i32 noundef %.05764)
  %14 = icmp eq i32 %13, 0
  br i1 %14, label %36, label %15

15:                                               ; preds = %12
  %16 = tail call ptr @cuddDynamicAllocNode(ptr noundef nonnull %0) #9
  %17 = icmp eq ptr %16, null
  br i1 %17, label %36, label %18

18:                                               ; preds = %15
  store i32 %.05366, ptr %16, align 8, !tbaa !43
  %19 = getelementptr inbounds nuw i8, ptr %16, i64 4
  store i32 %.05764, ptr %19, align 4, !tbaa !44
  %20 = getelementptr inbounds nuw i8, ptr %16, i64 16
  store ptr %.05465, ptr %20, align 8, !tbaa !40
  %21 = getelementptr inbounds nuw i8, ptr %16, i64 8
  store i32 0, ptr %21, align 8, !tbaa !42
  %22 = icmp sgt i32 %13, %10
  br i1 %22, label %23, label %26

23:                                               ; preds = %18
  %24 = tail call fastcc i32 @cuddZddLinearInPlace(ptr noundef nonnull %0, i32 noundef %.05366, i32 noundef %.05764)
  %25 = icmp eq i32 %24, 0
  br i1 %25, label %.lr.ph72, label %27

26:                                               ; preds = %18
  store i32 1, ptr %21, align 8, !tbaa !42
  br label %27

27:                                               ; preds = %23, %26
  %.052 = phi i32 [ %10, %23 ], [ %13, %26 ]
  %28 = getelementptr inbounds nuw i8, ptr %16, i64 12
  store i32 %.052, ptr %28, align 4, !tbaa !37
  %29 = sitofp i32 %.052 to double
  %30 = sitofp i32 %.067 to double
  %31 = load double, ptr %8, align 8, !tbaa !53
  %32 = fmul double %31, %30
  %33 = fcmp olt double %32, %29
  br i1 %33, label %.loopexit, label %34

34:                                               ; preds = %27
  %spec.select = tail call i32 @llvm.smin.i32(i32 %.052, i32 %.067)
  %35 = tail call i32 @cuddZddNextLow(ptr noundef nonnull %0, i32 noundef %.05366) #9
  %.not = icmp slt i32 %35, %2
  br i1 %.not, label %.loopexit, label %9, !llvm.loop !56

36:                                               ; preds = %15, %12, %9
  %.not6170 = icmp eq ptr %.05465, null
  br i1 %.not6170, label %.loopexit, label %.lr.ph72

.lr.ph72:                                         ; preds = %23, %36
  %.275 = phi ptr [ %.05465, %36 ], [ %16, %23 ]
  %37 = getelementptr inbounds nuw i8, ptr %0, i64 400
  %.promoted = load ptr, ptr %37, align 8, !tbaa !46
  br label %38

38:                                               ; preds = %.lr.ph72, %38
  %39 = phi ptr [ %.promoted, %.lr.ph72 ], [ %.371, %38 ]
  %.371 = phi ptr [ %.275, %.lr.ph72 ], [ %41, %38 ]
  %40 = getelementptr inbounds nuw i8, ptr %.371, i64 16
  %41 = load ptr, ptr %40, align 8, !tbaa !40
  %42 = getelementptr inbounds nuw i8, ptr %.371, i64 4
  store i32 0, ptr %42, align 4, !tbaa !47
  %43 = getelementptr inbounds nuw i8, ptr %.371, i64 8
  store ptr %39, ptr %43, align 8, !tbaa !48
  %.not61 = icmp eq ptr %41, null
  br i1 %.not61, label %..loopexit_crit_edge, label %38, !llvm.loop !57

..loopexit_crit_edge:                             ; preds = %38
  store ptr %.371, ptr %37, align 8, !tbaa !46
  br label %.loopexit

.loopexit:                                        ; preds = %27, %34, %4, %36, %..loopexit_crit_edge
  %.056 = phi ptr [ inttoptr (i64 -1 to ptr), %..loopexit_crit_edge ], [ inttoptr (i64 -1 to ptr), %36 ], [ %3, %4 ], [ %16, %34 ], [ %16, %27 ]
  ret ptr %.056
}